target datalayout = "e-m:e-p270:32:32-p271:32:32-p272:64:64-i64:64-i128:128-f80:128-n8:16:32:64-S128"
target triple = "x86_64-pc-linux-gnu"

; Function Attrs: mustprogress nounwind uwtable
define linkonce_odr noundef zeroext i1 @_ZN10OpenSubdiv6v3_6_03Sdc6Crease7IsSharpEf(float noundef %0) #1 comdat align 2 {
  %2 = alloca float, align 4
  store float %0, ptr %2, align 4
  %3 = load float, ptr %2, align 4
  %4 = fcmp ogt float %3, 0.000000e+00
  ret i1 %4
}

; Function Attrs: mustprogress nounwind uwtable
define noundef i32 @_ZNK10OpenSubdiv6v3_6_03Sdc6Crease25DetermineVertexVertexRuleEfiPKf(ptr noundef nonnull align 1 dereferenceable(4) %0, float noundef %1, i32 noundef %2, ptr noundef %3) #1 align 2 {
  %5 = alloca i32, align 4
  %6 = alloca ptr, align 8
  %7 = alloca float, align 4
  %8 = alloca i32, align 4
  %9 = alloca ptr, align 8
  %10 = alloca i32, align 4
  %11 = alloca i32, align 4
  store ptr %0, ptr %6, align 8
  store float %1, ptr %7, align 4
  store i32 %2, ptr %8, align 4
  store ptr %3, ptr %9, align 8
  %12 = load float, ptr %7, align 4
  %13 = call noundef zeroext i1 @_ZN10OpenSubdiv6v3_6_03Sdc6Crease7IsSharpEf(float noundef %12)
  br i1 %13, label %14, label %15

14:                                               ; preds = %4
  store i32 8, ptr %5, align 4
  br label %42

15:                                               ; preds = %4
  store i32 0, ptr %10, align 4
  store i32 0, ptr %11, align 4
  br label %16

16:                                               ; preds = %30, %15
  %17 = load i32, ptr %11, align 4
  %18 = load i32, ptr %8, align 4
  %19 = icmp slt i32 %17, %18
  br i1 %19, label %20, label %33

20:                                               ; preds = %16
  %21 = load ptr, ptr %9, align 8
  %22 = load i32, ptr %11, align 4
  %23 = sext i32 %22 to i64
  %24 = getelementptr inbounds float, ptr %21, i64 %23
  %25 = load float, ptr %24, align 4
  %26 = call noundef zeroext i1 @_ZN10OpenSubdiv6v3_6_03Sdc6Crease7IsSharpEf(float noundef %25)
  %27 = zext i1 %26 to i32
  %28 = load i32, ptr %10, align 4
  %29 = add nsw i32 %28, %27
  store i32 %29, ptr %10, align 4
  br label %30

30:                                               ; preds = %20
  %31 = load i32, ptr %11, align 4
  %32 = add nsw i32 %31, 1
  store i32 %32, ptr %11, align 4
  br label %16, !llvm.loop !5

33:                                               ; preds = %16
  %34 = load i32, ptr %10, align 4
  %35 = icmp sgt i32 %34, 2
  br i1 %35, label %36, label %37

36:                                               ; preds = %33
  br label %40

37:                                               ; preds = %33
  %38 = load i32, ptr %10, align 4
  %39 = shl i32 1, %38
  br label %40

40:                                               ; preds = %37, %36
  %41 = phi i32 [ 8, %36 ], [ %39, %37 ]
  store i32 %41, ptr %5, align 4
  br label %42

42:                                               ; preds = %40, %14
  %43 = load i32, ptr %5, align 4
  ret i32 %43
}