; Function Attrs: mustprogress nofree norecurse nosync nounwind willreturn memory(argmem: read) uwtable
define noundef range(i32 1, -2147483647) i32 @_ZNK10OpenSubdiv6v3_6_03Sdc6Crease25DetermineVertexVertexRuleEfiPKf(ptr nocapture noundef nonnull readnone align 1 dereferenceable(4) %0, float noundef %1, i32 noundef %2, ptr nocapture noundef readonly %3) local_unnamed_addr #1 align 2 {
  %5 = fcmp ogt float %1, 0.000000e+00
  br i1 %5, label %._crit_edge.thread, label %.preheader

.preheader:                                       ; preds = %4
  %6 = icmp sgt i32 %2, 0
  br i1 %6, label %.lr.ph.preheader, label %._crit_edge.thread

.lr.ph.preheader:                                 ; preds = %.preheader
  %wide.trip.count = zext nneg i32 %2 to i64
  br label %.lr.ph

.lr.ph:                                           ; preds = %.lr.ph.preheader, %.lr.ph
  %indvars.iv = phi i64 [ 0, %.lr.ph.preheader ], [ %indvars.iv.next, %.lr.ph ]
  %.0911 = phi i32 [ 0, %.lr.ph.preheader ], [ %11, %.lr.ph ]
  %7 = getelementptr inbounds float, ptr %3, i64 %indvars.iv
  %8 = load float, ptr %7, align 4
  %.fr17 = freeze float %8
  %9 = fcmp ogt float %.fr17, 0.000000e+00
  %10 = zext i1 %9 to i32
  %11 = add i32 %.0911, %10
  %indvars.iv.next = add nuw nsw i64 %indvars.iv, 1
  %exitcond.not = icmp eq i64 %indvars.iv.next, %wide.trip.count
  br i1 %exitcond.not, label %._crit_edge, label %.lr.ph, !llvm.loop !5

._crit_edge:                                      ; preds = %.lr.ph
  %12 = icmp ugt i32 %11, 2
  %13 = shl nuw i32 1, %11
  %spec.select = select i1 %12, i32 8, i32 %13
  br label %._crit_edge.thread

._crit_edge.thread:                               ; preds = %._crit_edge, %.preheader, %4
  %.010 = phi i32 [ 8, %4 ], [ 1, %.preheader ], [ %spec.select, %._crit_edge ]
  ret i32 %.010
}